; Function Attrs: mustprogress nofree norecurse nosync nounwind willreturn memory(none) uwtable
define signext range(i8 0, 2) i8 @u_isWhitespace_77(i32 noundef %0) local_unnamed_addr #0 {
  %2 = icmp ult i32 %0, 55296
  br i1 %2, label %3, label %5

3:                                                ; preds = %1
  %4 = lshr i32 %0, 5
  br label %.sink.split

5:                                                ; preds = %1
  %6 = icmp ult i32 %0, 65536
  br i1 %6, label %7, label %12

7:                                                ; preds = %5
  %8 = icmp samesign ult i32 %0, 56320
  %9 = select i1 %8, i32 320, i32 0
  %10 = lshr i32 %0, 5
  %11 = add nuw nsw i32 %9, %10
  br label %.sink.split

12:                                               ; preds = %5
  %13 = icmp ugt i32 %0, 1114111
  br i1 %13, label %32, label %14

14:                                               ; preds = %12
  %15 = lshr i32 %0, 11
  %16 = zext nneg i32 %15 to i64
  %17 = getelementptr inbounds nuw i16, ptr @_ZL15propsTrie_index, i64 %16
  %18 = getelementptr inbounds nuw i8, ptr %17, i64 4160
  %19 = load i16, ptr %18, align 2, !tbaa !3
  %20 = zext i16 %19 to i32
  %21 = lshr i32 %0, 5
  %22 = and i32 %21, 63
  %23 = add nuw nsw i32 %22, %20
  br label %.sink.split

.sink.split:                                      ; preds = %3, %14, %7
  %.sink32 = phi i32 [ %11, %7 ], [ %23, %14 ], [ %4, %3 ]
  %24 = zext nneg i32 %.sink32 to i64
  %25 = getelementptr inbounds nuw i16, ptr @_ZL15propsTrie_index, i64 %24
  %26 = load i16, ptr %25, align 2, !tbaa !3
  %27 = zext i16 %26 to i32
  %28 = shl nuw nsw i32 %27, 2
  %29 = and i32 %0, 31
  %30 = add nuw nsw i32 %28, %29
  %31 = zext nneg i32 %30 to i64
  br label %32

32:                                               ; preds = %.sink.split, %12
  %33 = phi i64 [ 4876, %12 ], [ %31, %.sink.split ]
  %34 = getelementptr inbounds nuw i16, ptr @_ZL15propsTrie_index, i64 %33
  %35 = load i16, ptr %34, align 2, !tbaa !3
  %36 = and i16 %35, 31
  %37 = zext nneg i16 %36 to i32
  %38 = shl nuw i32 1, %37
  %.fr27 = freeze i32 %38
  %39 = and i32 %.fr27, 28672
  %.not = icmp eq i32 %39, 0
  br i1 %.not, label %40, label %switch.early.test

switch.early.test:                                ; preds = %32
  switch i32 %0, label %46 [
    i32 8239, label %.thread
    i32 8199, label %.thread
    i32 160, label %.thread
  ]

.thread:                                          ; preds = %switch.early.test, %switch.early.test, %switch.early.test
  br label %46

40:                                               ; preds = %32
  %41 = add i32 %0, -9
  %or.cond7 = icmp ult i32 %41, 23
  br i1 %or.cond7, label %42, label %46

42:                                               ; preds = %40
  %43 = add nsw i32 %0, -28
  %44 = icmp ult i32 %43, -14
  %45 = zext i1 %44 to i8
  br label %46

46:                                               ; preds = %.thread, %switch.early.test, %40, %42
  %47 = phi i8 [ 1, %switch.early.test ], [ 0, %40 ], [ %45, %42 ], [ 0, %.thread ]
  ret i8 %47
}